target datalayout = "e-m:e-p270:32:32-p271:32:32-p272:64:64-i64:64-i128:128-f80:128-n8:16:32:64-S128"
target triple = "x86_64-pc-linux-gnu"

%struct.PlannerInfo = type { i32, ptr, ptr, i32, ptr, ptr, ptr, ptr, i32, ptr, ptr, ptr, ptr, ptr, ptr, ptr, ptr, i32, ptr, ptr, ptr, ptr, ptr, i8, ptr, ptr, ptr, ptr, ptr, i32, ptr, ptr, ptr, ptr, ptr, ptr, ptr, i32, ptr, ptr, ptr, i32, ptr, ptr, ptr, ptr, ptr, ptr, [8 x ptr], [8 x ptr], ptr, ptr, ptr, ptr, ptr, ptr, ptr, double, double, double, i32, i8, i8, i8, i8, i8, i8, i8, i32, ptr, ptr, i32, i8, i8, i32, ptr, ptr, ptr, ptr, ptr, ptr, i8, ptr }
%struct.ForEachState = type { ptr, i32 }
%struct.List = type { i32, i32, i32, ptr, [0 x %union.ListCell] }
%union.ListCell = type { ptr }
%struct.Node = type { i32 }
%struct.RangeTblRef = type { i32, i32 }

@enable_geqo = dso_local global i8 0, align 1
@join_search_hook = dso_local global ptr null, align 8
@.str.1 = private unnamed_addr constant [11 x i8] c"allpaths.c\00", align 1
@geqo_threshold = dso_local global i32 0, align 4
@.str.10 = private unnamed_addr constant [36 x i8] c"unrecognized joinlist node type: %d\00", align 1
@__func__.make_rel_from_joinlist = private unnamed_addr constant [23 x i8] c"make_rel_from_joinlist\00", align 1

; Function Attrs: inlinehint nounwind uwtable
define internal ptr @list_nth_cell(ptr noundef %0, i32 noundef %1) #4 {
  %3 = alloca ptr, align 8
  %4 = alloca i32, align 4
  store ptr %0, ptr %3, align 8
  store i32 %1, ptr %4, align 4
  %5 = load ptr, ptr %3, align 8
  %6 = getelementptr inbounds nuw %struct.List, ptr %5, i32 0, i32 3
  %7 = load ptr, ptr %6, align 8
  %8 = load i32, ptr %4, align 4
  %9 = sext i32 %8 to i64
  %10 = getelementptr inbounds %union.ListCell, ptr %7, i64 %9
  ret ptr %10
}

; Function Attrs: inlinehint nounwind uwtable
define internal i32 @list_length(ptr noundef %0) #4 {
  %2 = alloca ptr, align 8
  store ptr %0, ptr %2, align 8
  %3 = load ptr, ptr %2, align 8
  %4 = icmp ne ptr %3, null
  br i1 %4, label %5, label %9

5:                                                ; preds = %1
  %6 = load ptr, ptr %2, align 8
  %7 = getelementptr inbounds nuw %struct.List, ptr %6, i32 0, i32 1
  %8 = load i32, ptr %7, align 4
  br label %10

9:                                                ; preds = %1
  br label %10

10:                                               ; preds = %9, %5
  %11 = phi i32 [ %8, %5 ], [ 0, %9 ]
  ret i32 %11
}

; Function Attrs: nounwind uwtable
define internal ptr @make_rel_from_joinlist(ptr noundef %0, ptr noundef %1) #0 {
  %3 = alloca ptr, align 8
  %4 = alloca ptr, align 8
  %5 = alloca ptr, align 8
  %6 = alloca i32, align 4
  %7 = alloca ptr, align 8
  %8 = alloca ptr, align 8
  %9 = alloca i32, align 4
  %10 = alloca %struct.ForEachState, align 8
  %11 = alloca ptr, align 8
  %12 = alloca ptr, align 8
  %13 = alloca i32, align 4
  store ptr %0, ptr %4, align 8
  store ptr %1, ptr %5, align 8
  call void @llvm.lifetime.start.p0(i64 4, ptr %6) #8
  call void @llvm.lifetime.start.p0(i64 8, ptr %7) #8
  call void @llvm.lifetime.start.p0(i64 8, ptr %8) #8
  %14 = load ptr, ptr %5, align 8
  %15 = call i32 @list_length(ptr noundef %14)
  store i32 %15, ptr %6, align 4
  %16 = load i32, ptr %6, align 4
  %17 = icmp sle i32 %16, 0
  br i1 %17, label %18, label %19

18:                                               ; preds = %2
  store ptr null, ptr %3, align 8
  store i32 1, ptr %9, align 4
  br label %132

19:                                               ; preds = %2
  store ptr null, ptr %7, align 8
  call void @llvm.lifetime.start.p0(i64 16, ptr %10) #8
  %20 = getelementptr inbounds nuw %struct.ForEachState, ptr %10, i32 0, i32 0
  %21 = load ptr, ptr %5, align 8
  store ptr %21, ptr %20, align 8
  %22 = getelementptr inbounds nuw %struct.ForEachState, ptr %10, i32 0, i32 1
  store i32 0, ptr %22, align 8
  %23 = getelementptr i8, ptr %10, i64 12
  call void @llvm.memset.p0.i64(ptr align 4 %23, i8 0, i64 4, i1 false)
  br label %24

24:                                               ; preds = %92, %19
  %25 = getelementptr inbounds nuw %struct.ForEachState, ptr %10, i32 0, i32 0
  %26 = load ptr, ptr %25, align 8
  %27 = icmp ne ptr %26, null
  br i1 %27, label %28, label %45

28:                                               ; preds = %24
  %29 = getelementptr inbounds nuw %struct.ForEachState, ptr %10, i32 0, i32 1
  %30 = load i32, ptr %29, align 8
  %31 = getelementptr inbounds nuw %struct.ForEachState, ptr %10, i32 0, i32 0
  %32 = load ptr, ptr %31, align 8
  %33 = getelementptr inbounds nuw %struct.List, ptr %32, i32 0, i32 1
  %34 = load i32, ptr %33, align 4
  %35 = icmp slt i32 %30, %34
  br i1 %35, label %36, label %45

36:                                               ; preds = %28
  %37 = getelementptr inbounds nuw %struct.ForEachState, ptr %10, i32 0, i32 0
  %38 = load ptr, ptr %37, align 8
  %39 = getelementptr inbounds nuw %struct.List, ptr %38, i32 0, i32 3
  %40 = load ptr, ptr %39, align 8
  %41 = getelementptr inbounds nuw %struct.ForEachState, ptr %10, i32 0, i32 1
  %42 = load i32, ptr %41, align 8
  %43 = sext i32 %42 to i64
  %44 = getelementptr inbounds %union.ListCell, ptr %40, i64 %43
  store ptr %44, ptr %8, align 8
  br label %46

45:                                               ; preds = %28, %24
  store ptr null, ptr %8, align 8
  br label %46

46:                                               ; preds = %45, %36
  %47 = phi i32 [ 1, %36 ], [ 0, %45 ]
  %48 = icmp ne i32 %47, 0
  br i1 %48, label %50, label %49

49:                                               ; preds = %46
  store i32 2, ptr %9, align 4
  call void @llvm.lifetime.end.p0(i64 16, ptr %10) #8
  br label %96

50:                                               ; preds = %46
  call void @llvm.lifetime.start.p0(i64 8, ptr %11) #8
  %51 = load ptr, ptr %8, align 8
  %52 = load ptr, ptr %51, align 8
  store ptr %52, ptr %11, align 8
  call void @llvm.lifetime.start.p0(i64 8, ptr %12) #8
  %53 = load ptr, ptr %11, align 8
  %54 = getelementptr inbounds nuw %struct.Node, ptr %53, i32 0, i32 0
  %55 = load i32, ptr %54, align 4
  %56 = icmp eq i32 %55, 63
  br i1 %56, label %57, label %64

57:                                               ; preds = %50
  call void @llvm.lifetime.start.p0(i64 4, ptr %13) #8
  %58 = load ptr, ptr %11, align 8
  %59 = getelementptr inbounds nuw %struct.RangeTblRef, ptr %58, i32 0, i32 1
  %60 = load i32, ptr %59, align 4
  store i32 %60, ptr %13, align 4
  %61 = load ptr, ptr %4, align 8
  %62 = load i32, ptr %13, align 4
  %63 = call ptr @find_base_rel(ptr noundef %61, i32 noundef %62)
  store ptr %63, ptr %12, align 8
  call void @llvm.lifetime.end.p0(i64 4, ptr %13) #8
  br label %88

64:                                               ; preds = %50
  %65 = load ptr, ptr %11, align 8
  %66 = getelementptr inbounds nuw %struct.Node, ptr %65, i32 0, i32 0
  %67 = load i32, ptr %66, align 4
  %68 = icmp eq i32 %67, 1
  br i1 %68, label %69, label %73

69:                                               ; preds = %64
  %70 = load ptr, ptr %4, align 8
  %71 = load ptr, ptr %11, align 8
  %72 = call ptr @make_rel_from_joinlist(ptr noundef %70, ptr noundef %71)
  store ptr %72, ptr %12, align 8
  br label %87

73:                                               ; preds = %64
  br label %74

74:                                               ; preds = %73
  br i1 true, label %75, label %77

75:                                               ; preds = %74
  %76 = call zeroext i1 @errstart_cold(i32 noundef 21, ptr noundef null) #9
  br i1 %76, label %79, label %84

77:                                               ; preds = %74
  %78 = call zeroext i1 @errstart(i32 noundef 21, ptr noundef null)
  br i1 %78, label %79, label %84

79:                                               ; preds = %77, %75
  %80 = load ptr, ptr %11, align 8
  %81 = getelementptr inbounds nuw %struct.Node, ptr %80, i32 0, i32 0
  %82 = load i32, ptr %81, align 4
  %83 = call i32 (ptr, ...) @errmsg_internal(ptr noundef @.str.10, i32 noundef %82)
  call void @errfinish(ptr noundef @.str.1, i32 noundef 3365, ptr noundef @__func__.make_rel_from_joinlist)
  br label %84

84:                                               ; preds = %79, %77, %75
  unreachable

85:                                               ; No predecessors!
  br label %86

86:                                               ; preds = %85
  store ptr null, ptr %12, align 8
  br label %87

87:                                               ; preds = %86, %69
  br label %88

88:                                               ; preds = %87, %57
  %89 = load ptr, ptr %7, align 8
  %90 = load ptr, ptr %12, align 8
  %91 = call ptr @lappend(ptr noundef %89, ptr noundef %90)
  store ptr %91, ptr %7, align 8
  call void @llvm.lifetime.end.p0(i64 8, ptr %12) #8
  call void @llvm.lifetime.end.p0(i64 8, ptr %11) #8
  br label %92

92:                                               ; preds = %88
  %93 = getelementptr inbounds nuw %struct.ForEachState, ptr %10, i32 0, i32 1
  %94 = load i32, ptr %93, align 8
  %95 = add i32 %94, 1
  store i32 %95, ptr %93, align 8
  br label %24, !llvm.loop !11

96:                                               ; preds = %49
  %97 = load i32, ptr %6, align 4
  %98 = icmp eq i32 %97, 1
  br i1 %98, label %99, label %103

99:                                               ; preds = %96
  %100 = load ptr, ptr %7, align 8
  %101 = call ptr @list_nth_cell(ptr noundef %100, i32 noundef 0)
  %102 = load ptr, ptr %101, align 8
  store ptr %102, ptr %3, align 8
  store i32 1, ptr %9, align 4
  br label %132

103:                                              ; preds = %96
  %104 = load ptr, ptr %7, align 8
  %105 = load ptr, ptr %4, align 8
  %106 = getelementptr inbounds nuw %struct.PlannerInfo, ptr %105, i32 0, i32 47
  store ptr %104, ptr %106, align 8
  %107 = load ptr, ptr @join_search_hook, align 8
  %108 = icmp ne ptr %107, null
  br i1 %108, label %109, label %115

109:                                              ; preds = %103
  %110 = load ptr, ptr @join_search_hook, align 8
  %111 = load ptr, ptr %4, align 8
  %112 = load i32, ptr %6, align 4
  %113 = load ptr, ptr %7, align 8
  %114 = call ptr %110(ptr noundef %111, i32 noundef %112, ptr noundef %113)
  store ptr %114, ptr %3, align 8
  store i32 1, ptr %9, align 4
  br label %132

115:                                              ; preds = %103
  %116 = load i8, ptr @enable_geqo, align 1, !range !7, !noundef !8
  %117 = trunc i8 %116 to i1
  br i1 %117, label %118, label %127

118:                                              ; preds = %115
  %119 = load i32, ptr %6, align 4
  %120 = load i32, ptr @geqo_threshold, align 4
  %121 = icmp sge i32 %119, %120
  br i1 %121, label %122, label %127

122:                                              ; preds = %118
  %123 = load ptr, ptr %4, align 8
  %124 = load i32, ptr %6, align 4
  %125 = load ptr, ptr %7, align 8
  %126 = call ptr @geqo(ptr noundef %123, i32 noundef %124, ptr noundef %125)
  store ptr %126, ptr %3, align 8
  store i32 1, ptr %9, align 4
  br label %132

127:                                              ; preds = %118, %115
  %128 = load ptr, ptr %4, align 8
  %129 = load i32, ptr %6, align 4
  %130 = load ptr, ptr %7, align 8
  %131 = call ptr @standard_join_search(ptr noundef %128, i32 noundef %129, ptr noundef %130)
  store ptr %131, ptr %3, align 8
  store i32 1, ptr %9, align 4
  br label %132

132:                                              ; preds = %127, %122, %109, %99, %18
  call void @llvm.lifetime.end.p0(i64 8, ptr %8) #8
  call void @llvm.lifetime.end.p0(i64 8, ptr %7) #8
  call void @llvm.lifetime.end.p0(i64 4, ptr %6) #8
  %133 = load ptr, ptr %3, align 8
  ret ptr %133
}