; Function Attrs: nounwind uwtable
define internal fastcc ptr @make_rel_from_joinlist(ptr noundef %0, ptr noundef readonly captures(address_is_null) %1) unnamed_addr #0 {
  %.not.i = icmp eq ptr %1, null
  br i1 %.not.i, label %list_length.exit.thread, label %list_length.exit

list_length.exit:                                 ; preds = %2
  %3 = getelementptr inbounds nuw i8, ptr %1, i64 4
  %4 = load i32, ptr %3, align 4
  %5 = icmp slt i32 %4, 1
  br i1 %5, label %list_length.exit.thread, label %.lr.ph

.lr.ph:                                           ; preds = %list_length.exit
  %6 = getelementptr inbounds nuw i8, ptr %1, i64 16
  br label %8

._crit_edge:                                      ; preds = %23
  %7 = icmp eq i32 %4, 1
  br i1 %7, label %28, label %31

8:                                                ; preds = %.lr.ph, %23
  %indvars.iv = phi i64 [ 0, %.lr.ph ], [ %indvars.iv.next, %23 ]
  %.03347 = phi ptr [ null, %.lr.ph ], [ %24, %23 ]
  %9 = load ptr, ptr %6, align 8
  %10 = getelementptr inbounds nuw %union.ListCell, ptr %9, i64 %indvars.iv
  %11 = load ptr, ptr %10, align 8
  %12 = load i32, ptr %11, align 4
  switch i32 %12, label %19 [
    i32 63, label %13
    i32 1, label %17
  ]

13:                                               ; preds = %8
  %14 = getelementptr inbounds nuw i8, ptr %11, i64 4
  %15 = load i32, ptr %14, align 4
  %16 = tail call ptr @find_base_rel(ptr noundef %0, i32 noundef %15) #9
  br label %23

17:                                               ; preds = %8
  %18 = tail call fastcc ptr @make_rel_from_joinlist(ptr noundef %0, ptr noundef nonnull %11)
  br label %23

19:                                               ; preds = %8
  %20 = tail call zeroext i1 @errstart_cold(i32 noundef 21, ptr noundef null) #10
  tail call void @llvm.assume(i1 %20)
  %21 = load i32, ptr %11, align 4
  %22 = tail call i32 (ptr, ...) @errmsg_internal(ptr noundef nonnull @.str.10, i32 noundef %21) #9
  tail call void @errfinish(ptr noundef nonnull @.str.1, i32 noundef 3365, ptr noundef nonnull @__func__.make_rel_from_joinlist) #9
  unreachable

23:                                               ; preds = %17, %13
  %.032 = phi ptr [ %16, %13 ], [ %18, %17 ]
  %24 = tail call ptr @lappend(ptr noundef %.03347, ptr noundef %.032) #9
  %indvars.iv.next = add nuw nsw i64 %indvars.iv, 1
  %25 = load i32, ptr %3, align 4
  %26 = sext i32 %25 to i64
  %27 = icmp slt i64 %indvars.iv.next, %26
  br i1 %27, label %8, label %._crit_edge, !llvm.loop !10

28:                                               ; preds = %._crit_edge
  %29 = getelementptr i8, ptr %24, i64 16
  %.033.val = load ptr, ptr %29, align 8
  %30 = load ptr, ptr %.033.val, align 8
  br label %list_length.exit.thread

31:                                               ; preds = %._crit_edge
  %32 = getelementptr inbounds nuw i8, ptr %0, i64 376
  store ptr %24, ptr %32, align 8
  %33 = load ptr, ptr @join_search_hook, align 8
  %.not40 = icmp eq ptr %33, null
  br i1 %.not40, label %36, label %34

34:                                               ; preds = %31
  %35 = tail call ptr %33(ptr noundef nonnull %0, i32 noundef %4, ptr noundef %24) #9
  br label %list_length.exit.thread

36:                                               ; preds = %31
  %37 = load i8, ptr @enable_geqo, align 1, !range !4, !noundef !5
  %38 = trunc nuw i8 %37 to i1
  %39 = load i32, ptr @geqo_threshold, align 4
  %.not41 = icmp sge i32 %4, %39
  %or.cond.not = select i1 %38, i1 %.not41, i1 false
  br i1 %or.cond.not, label %40, label %42

40:                                               ; preds = %36
  %41 = tail call ptr @geqo(ptr noundef nonnull %0, i32 noundef %4, ptr noundef %24) #9
  br label %list_length.exit.thread

42:                                               ; preds = %36
  %43 = tail call ptr @standard_join_search(ptr noundef nonnull %0, i32 noundef %4, ptr noundef %24)
  br label %list_length.exit.thread

list_length.exit.thread:                          ; preds = %2, %list_length.exit, %42, %40, %34, %28
  %.0 = phi ptr [ %30, %28 ], [ %35, %34 ], [ %41, %40 ], [ %43, %42 ], [ null, %list_length.exit ], [ null, %2 ]
  ret ptr %.0
}